(dp1
S'rangeid'
p2
I114
sS'prevwidth'
p3
I838
sS'range_interval'
p4
(dp5
I112
I01
sI69
I01
sI40
I01
sI73
I01
sI48
I01
sI105
I01
sI58
I01
sI60
I01
sI95
I01
ssS'interval'
p6
I00
sS'range'
p7
(dp8
I32
(lp9
I348
aI456
aI521
aI838
aI696
aI1002
aI872
aI306
asI97
(lp10
I675
aI716
aI593
aI716
aI678
aI435
aI716
aI712
asI107
(lp11
I665
aI343
aI1042
aI712
aI687
asI69
(lp12
I683
aI683
asI71
(lp13
I821
aI837
asI40
(lp14
I457
aI457
asI73
(lp15
I372
aI372
asI42
(lp16
I523
aI838
aI380
aI415
aI380
aI365
asI75
(lp17
I775
aI637
aI995
aI837
aI850
aI733
aI850
aI770
aI720
aI682
aI812
aI774
aI1103
aI771
aI724
aI725
aI457
aI365
aI457
aI838
asI112
(lp18
I716
aI716
asI48
(lp19
I696
aI696
aI696
aI696
aI696
aI696
aI696
aI696
aI696
aI696
asI114
(lp20
I493
aI595
aI478
aI712
aI652
aI924
aI645
aI652
aI582
aI712
aI365
aI712
aI838
asI105
(lp21
I343
aI343
asI58
(lp22
I400
aI400
asI95
(lp23
I500
aI500
asI60
(lp24
I838
aI838
aI838
asI63
(lp25
I580
aI1000
aI774
aI762
aI734
aI830
assS'prevcid'
p26
I126
s.