(dp1
S'rangeid'
p2
I122
sS'prevwidth'
p3
I838
sS'range_interval'
p4
(dp5
I112
I01
sI40
I01
sI73
I01
sI48
I01
sI105
I01
sI120
I01
sI58
I01
sI60
I01
sI95
I01
ssS'interval'
p6
I00
sS'range'
p7
(dp8
I32
(lp9
I318
aI401
aI460
aI838
aI636
aI950
aI780
aI275
asI97
(lp10
I613
aI635
aI550
aI635
aI615
aI352
aI635
aI634
asI107
(lp11
I579
aI278
aI974
aI634
aI612
asI40
(lp12
I390
aI390
asI73
(lp13
I295
aI295
asI42
(lp14
I500
aI838
aI318
aI361
aI318
aI337
asI75
(lp15
I656
aI557
aI863
aI748
aI787
aI603
aI787
aI695
aI635
aI611
aI732
aI684
aI989
aI685
aI611
aI685
aI390
aI337
aI390
aI838
asI112
(lp16
I635
aI635
asI48
(lp17
I636
aI636
aI636
aI636
aI636
aI636
aI636
aI636
aI636
aI636
asI114
(lp18
I411
aI521
aI392
aI634
aI592
aI818
asI105
(lp19
I278
aI278
asI120
(lp20
I592
aI592
asI58
(lp21
I337
aI337
asI95
(lp22
I500
aI500
asI60
(lp23
I838
aI838
aI838
asI122
(lp24
I525
aI636
aI337
aI636
aI838
asI63
(lp25
I531
aI1000
aI684
aI686
aI698
aI770
aI632
aI575
aI775
aI752
assS'prevcid'
p26
I126
s.